; Function Attrs: mustprogress uwtable
define void @_ZN14debug_module_t13run_test_idleEv(ptr noundef nonnull align 8 captures(none) dereferenceable(1372) %0) local_unnamed_addr #3 align 2 {
  %2 = getelementptr inbounds nuw i8, ptr %0, i64 1356
  %3 = load i32, ptr %2, align 4, !tbaa !58
  %.not = icmp eq i32 %3, 0
  br i1 %.not, label %.thread, label %4

4:                                                ; preds = %1
  %5 = add i32 %3, -1
  store i32 %5, ptr %2, align 4, !tbaa !58
  %6 = icmp eq i32 %5, 0
  br i1 %6, label %.thread, label %15

.thread:                                          ; preds = %1, %4
  %7 = getelementptr inbounds nuw i8, ptr %0, i64 1208
  %8 = load i8, ptr %7, align 8, !tbaa !250, !range !14, !noundef !15
  %9 = trunc nuw i8 %8 to i1
  br i1 %9, label %10, label %15

10:                                               ; preds = %.thread
  %11 = getelementptr inbounds nuw i8, ptr %0, i64 1352
  %12 = load i8, ptr %11, align 8, !tbaa !201, !range !14, !noundef !15
  %13 = trunc nuw i8 %12 to i1
  br i1 %13, label %14, label %15

14:                                               ; preds = %10
  store i8 0, ptr %7, align 8, !tbaa !250
  br label %15

15:                                               ; preds = %14, %10, %.thread, %4
  %16 = getelementptr inbounds nuw i8, ptr %0, i64 1364
  %17 = load i32, ptr %16, align 4, !tbaa !59
  %.not3 = icmp eq i32 %17, 0
  br i1 %.not3, label %_ZN14debug_module_t16sb_autoincrementEv.exit, label %18

18:                                               ; preds = %15
  %19 = add i32 %17, -1
  store i32 %19, ptr %16, align 4, !tbaa !59
  %20 = icmp eq i32 %19, 0
  br i1 %20, label %21, label %_ZN14debug_module_t16sb_autoincrementEv.exit

21:                                               ; preds = %18
  tail call void @_ZN14debug_module_t7sb_readEv(ptr noundef nonnull align 8 dereferenceable(1372) %0)
  %22 = getelementptr inbounds nuw i8, ptr %0, i64 1296
  %23 = load i32, ptr %22, align 8, !tbaa !248
  %24 = icmp eq i32 %23, 0
  br i1 %24, label %25, label %_ZN14debug_module_t16sb_autoincrementEv.exit

25:                                               ; preds = %21
  %26 = getelementptr inbounds nuw i8, ptr %0, i64 1292
  %27 = load i8, ptr %26, align 4, !tbaa !206, !range !14, !noundef !15
  %28 = trunc nuw i8 %27 to i1
  %29 = getelementptr inbounds nuw i8, ptr %0, i64 12
  %30 = load i32, ptr %29, align 4
  %.not.i = icmp ne i32 %30, 0
  %or.cond.not.i = select i1 %28, i1 %.not.i, i1 false
  br i1 %or.cond.not.i, label %31, label %_ZN14debug_module_t16sb_autoincrementEv.exit

31:                                               ; preds = %25
  %32 = getelementptr inbounds nuw i8, ptr %0, i64 1312
  %33 = load i32, ptr %32, align 8, !tbaa !7
  %34 = getelementptr inbounds nuw i8, ptr %0, i64 1288
  %35 = load i32, ptr %34, align 8, !tbaa !205
  %36 = shl i32 8, %35
  %37 = lshr exact i32 %36, 3
  %38 = add i32 %37, %33
  store i32 %38, ptr %32, align 8, !tbaa !7
  br label %_ZN14debug_module_t16sb_autoincrementEv.exit

_ZN14debug_module_t16sb_autoincrementEv.exit:     ; preds = %31, %25, %18, %21, %15
  %39 = getelementptr inbounds nuw i8, ptr %0, i64 1368
  %40 = load i32, ptr %39, align 8, !tbaa !60
  %.not4 = icmp eq i32 %40, 0
  br i1 %.not4, label %_ZN14debug_module_t16sb_autoincrementEv.exit7, label %41

41:                                               ; preds = %_ZN14debug_module_t16sb_autoincrementEv.exit
  %42 = add i32 %40, -1
  store i32 %42, ptr %39, align 8, !tbaa !60
  %43 = icmp eq i32 %42, 0
  br i1 %43, label %44, label %_ZN14debug_module_t16sb_autoincrementEv.exit7

44:                                               ; preds = %41
  tail call void @_ZN14debug_module_t8sb_writeEv(ptr noundef nonnull align 8 dereferenceable(1372) %0)
  %45 = getelementptr inbounds nuw i8, ptr %0, i64 1296
  %46 = load i32, ptr %45, align 8, !tbaa !248
  %47 = icmp eq i32 %46, 0
  br i1 %47, label %48, label %_ZN14debug_module_t16sb_autoincrementEv.exit7

48:                                               ; preds = %44
  %49 = getelementptr inbounds nuw i8, ptr %0, i64 1292
  %50 = load i8, ptr %49, align 4, !tbaa !206, !range !14, !noundef !15
  %51 = trunc nuw i8 %50 to i1
  %52 = getelementptr inbounds nuw i8, ptr %0, i64 12
  %53 = load i32, ptr %52, align 4
  %.not.i5 = icmp ne i32 %53, 0
  %or.cond.not.i6 = select i1 %51, i1 %.not.i5, i1 false
  br i1 %or.cond.not.i6, label %54, label %_ZN14debug_module_t16sb_autoincrementEv.exit7

54:                                               ; preds = %48
  %55 = getelementptr inbounds nuw i8, ptr %0, i64 1312
  %56 = load i32, ptr %55, align 8, !tbaa !7
  %57 = getelementptr inbounds nuw i8, ptr %0, i64 1288
  %58 = load i32, ptr %57, align 8, !tbaa !205
  %59 = shl i32 8, %58
  %60 = lshr exact i32 %59, 3
  %61 = add i32 %60, %56
  store i32 %61, ptr %55, align 8, !tbaa !7
  br label %_ZN14debug_module_t16sb_autoincrementEv.exit7

_ZN14debug_module_t16sb_autoincrementEv.exit7:    ; preds = %54, %48, %41, %44, %_ZN14debug_module_t16sb_autoincrementEv.exit
  ret void
}